target datalayout = "e-m:e-p270:32:32-p271:32:32-p272:64:64-i64:64-i128:128-f80:128-n8:16:32:64-S128"
target triple = "x86_64-pc-linux-gnu"

%struct.pmix_class_t = type { ptr, ptr, ptr, ptr, i32, i32, ptr, ptr, i64 }
%struct.pmix_globals_t = type { i32, %struct.pmix_proc, %struct.pmix_value, %struct.pmix_value, ptr, i32, i32, ptr, i32, i32, i32, i32, i32, ptr, ptr, i32, %struct.pmix_events_t, i8, i8, %struct.timeval, %struct.pmix_list_t, %struct.pmix_pointer_array_t, i32, i32, %struct.pmix_hotel_t, i8, %struct.pmix_list_t, i8, i8, i8, i64, %struct.pmix_list_t, %struct.pmix_topology_t, %struct.pmix_cpuset_t, i8, i8, %struct.pmix_iof_flags_t, %struct.pmix_keyindex_t }
%struct.pmix_proc = type { [256 x i8], i32 }
%struct.pmix_value = type { i16, %union.anon }
%union.anon = type { %struct.pmix_envar_t }
%struct.pmix_envar_t = type { ptr, ptr, i8 }
%struct.pmix_events_t = type { %struct.pmix_object_t, i64, ptr, ptr, %struct.pmix_list_t, %struct.pmix_list_t, %struct.pmix_list_t, %struct.pmix_list_t }
%struct.pmix_object_t = type { %union.pthread_mutex_t, ptr, i32, %struct.pmix_tma }
%union.pthread_mutex_t = type { %struct.__pthread_mutex_s }
%struct.__pthread_mutex_s = type { i32, i32, i32, i32, i32, i16, i16, %struct.__pthread_internal_list }
%struct.__pthread_internal_list = type { ptr, ptr }
%struct.pmix_tma = type { ptr, ptr, ptr, ptr, ptr, ptr, ptr, ptr }
%struct.timeval = type { i64, i64 }
%struct.pmix_pointer_array_t = type { %struct.pmix_object_t, i32, i32, i32, i32, i32, ptr, ptr }
%struct.pmix_hotel_t = type { %struct.pmix_object_t, i32, ptr, %struct.timeval, ptr, ptr, ptr, ptr, i32 }
%struct.pmix_list_t = type { %struct.pmix_object_t, %struct.pmix_list_item_t, i64 }
%struct.pmix_list_item_t = type { %struct.pmix_object_t, ptr, ptr, i32 }
%struct.pmix_topology_t = type { ptr, ptr }
%struct.pmix_cpuset_t = type { ptr, ptr }
%struct.pmix_iof_flags_t = type { i8, i8, i8, i8, i8, i8, i8, ptr, ptr, i8, i8, i8, i8, i8, i8 }
%struct.pmix_keyindex_t = type { %struct.pmix_object_t, ptr, i32 }
%struct.pmix_output_desc_t = type { i8, i8, i32, i8, i32, ptr, ptr, i32, ptr, i32, i8, i8, i8, i8, ptr, i32, i32 }
%struct.pmix_buffer_t = type { %struct.pmix_object_t, i8, ptr, ptr, ptr, i64, i64 }
%struct.pmix_peer_t = type { %struct.pmix_object_t, ptr, ptr, %struct.pmix_proc_type_t, i16, i32, i32, i32, i8, %struct.event, i8, %struct.event, i8, %struct.pmix_list_t, ptr, ptr, i32, %struct.pmix_epilog_t }
%struct.pmix_proc_type_t = type { i32, i8, i8, i8, i8 }
%struct.event = type { %struct.event_callback, %union.anon.1, i32, ptr, %union.anon.3, i16, i16, %struct.timeval }
%struct.event_callback = type { %struct.anon, i16, i8, i8, %union.anon.0, ptr }
%struct.anon = type { ptr, ptr }
%union.anon.0 = type { ptr }
%union.anon.1 = type { %struct.anon.2 }
%struct.anon.2 = type { ptr, ptr }
%union.anon.3 = type { %struct.anon.4 }
%struct.anon.4 = type { %struct.anon.5, %struct.timeval }
%struct.anon.5 = type { ptr, ptr }
%struct.pmix_epilog_t = type { i32, i32, %struct.pmix_list_t, %struct.pmix_list_t, %struct.pmix_list_t }
%struct.pmix_namespace_t = type { %struct.pmix_list_item_t, ptr, %struct.anon.8, i32, i64, i64, i8, i8, ptr, i64, i64, %struct.pmix_list_t, %struct.pmix_personality_t, %struct.pmix_epilog_t, %struct.pmix_list_t, %struct.pmix_iof_flags_t, %struct.pmix_list_t }
%struct.anon.8 = type { i8, i8, i8 }
%struct.pmix_personality_t = type { i8, ptr, ptr, ptr }
%struct.pmix_data_buffer = type { ptr, ptr, ptr, i64, i64 }
%struct.pmix_bfrops_module_t = type { ptr, ptr, ptr, ptr, ptr, ptr, ptr, ptr, ptr, ptr, ptr, ptr, ptr }

@pmix_class_init_epoch = external global i32, align 4
@pmix_buffer_t_class = external global %struct.pmix_class_t, align 8
@pmix_globals = external global %struct.pmix_globals_t, align 8
@pmix_bfrops_base_output = external global i32, align 4
@pmix_output_info = external global [0 x %struct.pmix_output_desc_t], align 8
@.str.1 = private unnamed_addr constant [19 x i8] c"common/pmix_data.c\00", align 1
@.str.2 = private unnamed_addr constant [34 x i8] c"[%s:%d] UNPACK version %s type %s\00", align 1

; Function Attrs: inlinehint nounwind uwtable
define internal void @pmix_obj_run_constructors(ptr noundef %0) #3 {
  %2 = alloca ptr, align 8
  %3 = alloca ptr, align 8
  store ptr %0, ptr %2, align 8, !tbaa !88
  call void @llvm.lifetime.start.p0(i64 8, ptr %3) #12
  %4 = load ptr, ptr %2, align 8, !tbaa !88
  %5 = getelementptr inbounds nuw %struct.pmix_object_t, ptr %4, i32 0, i32 1
  %6 = load ptr, ptr %5, align 8, !tbaa !22
  %7 = getelementptr inbounds nuw %struct.pmix_class_t, ptr %6, i32 0, i32 6
  %8 = load ptr, ptr %7, align 8, !tbaa !111
  store ptr %8, ptr %3, align 8, !tbaa !10
  br label %9

9:                                                ; preds = %13, %1
  %10 = load ptr, ptr %3, align 8, !tbaa !10
  %11 = load ptr, ptr %10, align 8, !tbaa !10
  %12 = icmp ne ptr null, %11
  br i1 %12, label %13, label %19

13:                                               ; preds = %9
  %14 = load ptr, ptr %3, align 8, !tbaa !10
  %15 = load ptr, ptr %14, align 8, !tbaa !10
  %16 = load ptr, ptr %2, align 8, !tbaa !88
  call void %15(ptr noundef %16)
  %17 = load ptr, ptr %3, align 8, !tbaa !10
  %18 = getelementptr inbounds nuw ptr, ptr %17, i32 1
  store ptr %18, ptr %3, align 8, !tbaa !10
  br label %9, !llvm.loop !112

19:                                               ; preds = %9
  call void @llvm.lifetime.end.p0(i64 8, ptr %3) #12
  ret void
}

; Function Attrs: inlinehint nounwind uwtable
define internal void @pmix_obj_construct_tma(ptr noundef %0, ptr noundef %1) #3 {
  %3 = alloca ptr, align 8
  %4 = alloca ptr, align 8
  store ptr %0, ptr %3, align 8, !tbaa !88
  store ptr %1, ptr %4, align 8, !tbaa !101
  %5 = load ptr, ptr %4, align 8, !tbaa !101
  %6 = icmp eq ptr null, %5
  br i1 %6, label %7, label %32

7:                                                ; preds = %2
  %8 = load ptr, ptr %3, align 8, !tbaa !88
  %9 = getelementptr inbounds nuw %struct.pmix_object_t, ptr %8, i32 0, i32 3
  %10 = getelementptr inbounds nuw %struct.pmix_tma, ptr %9, i32 0, i32 0
  store ptr null, ptr %10, align 8, !tbaa !103
  %11 = load ptr, ptr %3, align 8, !tbaa !88
  %12 = getelementptr inbounds nuw %struct.pmix_object_t, ptr %11, i32 0, i32 3
  %13 = getelementptr inbounds nuw %struct.pmix_tma, ptr %12, i32 0, i32 1
  store ptr null, ptr %13, align 8, !tbaa !104
  %14 = load ptr, ptr %3, align 8, !tbaa !88
  %15 = getelementptr inbounds nuw %struct.pmix_object_t, ptr %14, i32 0, i32 3
  %16 = getelementptr inbounds nuw %struct.pmix_tma, ptr %15, i32 0, i32 2
  store ptr null, ptr %16, align 8, !tbaa !105
  %17 = load ptr, ptr %3, align 8, !tbaa !88
  %18 = getelementptr inbounds nuw %struct.pmix_object_t, ptr %17, i32 0, i32 3
  %19 = getelementptr inbounds nuw %struct.pmix_tma, ptr %18, i32 0, i32 3
  store ptr null, ptr %19, align 8, !tbaa !106
  %20 = load ptr, ptr %3, align 8, !tbaa !88
  %21 = getelementptr inbounds nuw %struct.pmix_object_t, ptr %20, i32 0, i32 3
  %22 = getelementptr inbounds nuw %struct.pmix_tma, ptr %21, i32 0, i32 4
  store ptr null, ptr %22, align 8, !tbaa !107
  %23 = load ptr, ptr %3, align 8, !tbaa !88
  %24 = getelementptr inbounds nuw %struct.pmix_object_t, ptr %23, i32 0, i32 3
  %25 = getelementptr inbounds nuw %struct.pmix_tma, ptr %24, i32 0, i32 5
  store ptr null, ptr %25, align 8, !tbaa !90
  %26 = load ptr, ptr %3, align 8, !tbaa !88
  %27 = getelementptr inbounds nuw %struct.pmix_object_t, ptr %26, i32 0, i32 3
  %28 = getelementptr inbounds nuw %struct.pmix_tma, ptr %27, i32 0, i32 6
  store ptr null, ptr %28, align 8, !tbaa !108
  %29 = load ptr, ptr %3, align 8, !tbaa !88
  %30 = getelementptr inbounds nuw %struct.pmix_object_t, ptr %29, i32 0, i32 3
  %31 = getelementptr inbounds nuw %struct.pmix_tma, ptr %30, i32 0, i32 7
  store ptr null, ptr %31, align 8, !tbaa !109
  br label %36

32:                                               ; preds = %2
  %33 = load ptr, ptr %3, align 8, !tbaa !88
  %34 = getelementptr inbounds nuw %struct.pmix_object_t, ptr %33, i32 0, i32 3
  %35 = load ptr, ptr %4, align 8, !tbaa !101
  call void @llvm.memcpy.p0.p0.i64(ptr align 8 %34, ptr align 8 %35, i64 64, i1 false), !tbaa.struct !110
  br label %36

36:                                               ; preds = %32, %7
  ret void
}

; Function Attrs: nounwind uwtable
define i32 @PMIx_Data_unpack(ptr noundef %0, ptr noundef %1, ptr noundef %2, ptr noundef %3, i16 noundef zeroext %4) #0 {
  %6 = alloca i32, align 4
  %7 = alloca ptr, align 8
  %8 = alloca ptr, align 8
  %9 = alloca ptr, align 8
  %10 = alloca ptr, align 8
  %11 = alloca i16, align 2
  %12 = alloca i32, align 4
  %13 = alloca %struct.pmix_buffer_t, align 8
  %14 = alloca ptr, align 8
  %15 = alloca i32, align 4
  store ptr %0, ptr %7, align 8, !tbaa !3
  store ptr %1, ptr %8, align 8, !tbaa !8
  store ptr %2, ptr %9, align 8, !tbaa !10
  store ptr %3, ptr %10, align 8, !tbaa !113
  store i16 %4, ptr %11, align 2, !tbaa !13
  call void @llvm.lifetime.start.p0(i64 4, ptr %12) #12
  call void @llvm.lifetime.start.p0(i64 168, ptr %13) #12
  call void @llvm.lifetime.start.p0(i64 8, ptr %14) #12
  %16 = load ptr, ptr %7, align 8, !tbaa !3
  %17 = call ptr @find_peer(ptr noundef %16)
  store ptr %17, ptr %14, align 8, !tbaa !15
  %18 = icmp eq ptr null, %17
  br i1 %18, label %19, label %20

19:                                               ; preds = %5
  store i32 -46, ptr %6, align 4
  store i32 1, ptr %15, align 4
  br label %160

20:                                               ; preds = %5
  br label %21

21:                                               ; preds = %20
  br label %22

22:                                               ; preds = %21
  br label %23

23:                                               ; preds = %22
  %24 = load i32, ptr @pmix_class_init_epoch, align 4, !tbaa !11
  %25 = load i32, ptr getelementptr inbounds nuw (%struct.pmix_class_t, ptr @pmix_buffer_t_class, i32 0, i32 4), align 8, !tbaa !17
  %26 = icmp ne i32 %24, %25
  br i1 %26, label %27, label %28

27:                                               ; preds = %23
  call void @pmix_class_initialize(ptr noundef @pmix_buffer_t_class)
  br label %28

28:                                               ; preds = %27, %23
  %29 = getelementptr inbounds nuw %struct.pmix_object_t, ptr %13, i32 0, i32 1
  store ptr @pmix_buffer_t_class, ptr %29, align 8, !tbaa !22
  %30 = getelementptr inbounds nuw %struct.pmix_object_t, ptr %13, i32 0, i32 2
  store i32 1, ptr %30, align 8, !tbaa !25
  call void @pmix_obj_construct_tma(ptr noundef %13, ptr noundef null)
  call void @pmix_obj_run_constructors(ptr noundef %13)
  br label %31

31:                                               ; preds = %28
  br label %32

32:                                               ; preds = %31
  br label %33

33:                                               ; preds = %32
  br label %34

34:                                               ; preds = %33
  br label %35

35:                                               ; preds = %34
  br label %36

36:                                               ; preds = %35
  br label %37

37:                                               ; preds = %36
  %38 = load ptr, ptr getelementptr inbounds nuw (%struct.pmix_globals_t, ptr @pmix_globals, i32 0, i32 4), align 8, !tbaa !26
  %39 = getelementptr inbounds nuw %struct.pmix_peer_t, ptr %38, i32 0, i32 1
  %40 = load ptr, ptr %39, align 8, !tbaa !45
  %41 = getelementptr inbounds nuw %struct.pmix_namespace_t, ptr %40, i32 0, i32 12
  %42 = getelementptr inbounds nuw %struct.pmix_personality_t, ptr %41, i32 0, i32 0
  %43 = load i8, ptr %42, align 8, !tbaa !55
  %44 = getelementptr inbounds nuw %struct.pmix_buffer_t, ptr %13, i32 0, i32 1
  store i8 %43, ptr %44, align 8, !tbaa !59
  %45 = load ptr, ptr %8, align 8, !tbaa !8
  %46 = getelementptr inbounds nuw %struct.pmix_data_buffer, ptr %45, i32 0, i32 0
  %47 = load ptr, ptr %46, align 8, !tbaa !61
  %48 = getelementptr inbounds nuw %struct.pmix_buffer_t, ptr %13, i32 0, i32 2
  store ptr %47, ptr %48, align 8, !tbaa !63
  %49 = load ptr, ptr %8, align 8, !tbaa !8
  %50 = getelementptr inbounds nuw %struct.pmix_data_buffer, ptr %49, i32 0, i32 1
  %51 = load ptr, ptr %50, align 8, !tbaa !64
  %52 = getelementptr inbounds nuw %struct.pmix_buffer_t, ptr %13, i32 0, i32 3
  store ptr %51, ptr %52, align 8, !tbaa !65
  %53 = load ptr, ptr %8, align 8, !tbaa !8
  %54 = getelementptr inbounds nuw %struct.pmix_data_buffer, ptr %53, i32 0, i32 2
  %55 = load ptr, ptr %54, align 8, !tbaa !66
  %56 = getelementptr inbounds nuw %struct.pmix_buffer_t, ptr %13, i32 0, i32 4
  store ptr %55, ptr %56, align 8, !tbaa !67
  %57 = load ptr, ptr %8, align 8, !tbaa !8
  %58 = getelementptr inbounds nuw %struct.pmix_data_buffer, ptr %57, i32 0, i32 3
  %59 = load i64, ptr %58, align 8, !tbaa !68
  %60 = getelementptr inbounds nuw %struct.pmix_buffer_t, ptr %13, i32 0, i32 5
  store i64 %59, ptr %60, align 8, !tbaa !69
  %61 = load ptr, ptr %8, align 8, !tbaa !8
  %62 = getelementptr inbounds nuw %struct.pmix_data_buffer, ptr %61, i32 0, i32 4
  %63 = load i64, ptr %62, align 8, !tbaa !70
  %64 = getelementptr inbounds nuw %struct.pmix_buffer_t, ptr %13, i32 0, i32 6
  store i64 %63, ptr %64, align 8, !tbaa !71
  %65 = load ptr, ptr %8, align 8, !tbaa !8
  %66 = getelementptr inbounds nuw %struct.pmix_data_buffer, ptr %65, i32 0, i32 0
  store ptr null, ptr %66, align 8, !tbaa !61
  %67 = load ptr, ptr %8, align 8, !tbaa !8
  %68 = getelementptr inbounds nuw %struct.pmix_data_buffer, ptr %67, i32 0, i32 1
  store ptr null, ptr %68, align 8, !tbaa !64
  %69 = load ptr, ptr %8, align 8, !tbaa !8
  %70 = getelementptr inbounds nuw %struct.pmix_data_buffer, ptr %69, i32 0, i32 2
  store ptr null, ptr %70, align 8, !tbaa !66
  %71 = load ptr, ptr %8, align 8, !tbaa !8
  %72 = getelementptr inbounds nuw %struct.pmix_data_buffer, ptr %71, i32 0, i32 3
  store i64 0, ptr %72, align 8, !tbaa !68
  %73 = load ptr, ptr %8, align 8, !tbaa !8
  %74 = getelementptr inbounds nuw %struct.pmix_data_buffer, ptr %73, i32 0, i32 4
  store i64 0, ptr %74, align 8, !tbaa !70
  br label %75

75:                                               ; preds = %37
  br label %76

76:                                               ; preds = %75
  br label %77

77:                                               ; preds = %76
  %78 = load i32, ptr @pmix_bfrops_base_output, align 4, !tbaa !11
  %79 = icmp sge i32 %78, 0
  br i1 %79, label %80, label %102

80:                                               ; preds = %77
  %81 = load i32, ptr @pmix_bfrops_base_output, align 4, !tbaa !11
  %82 = icmp slt i32 %81, 64
  br i1 %82, label %83, label %102

83:                                               ; preds = %80
  %84 = load i32, ptr @pmix_bfrops_base_output, align 4, !tbaa !11
  %85 = sext i32 %84 to i64
  %86 = getelementptr inbounds [0 x %struct.pmix_output_desc_t], ptr @pmix_output_info, i64 0, i64 %85
  %87 = getelementptr inbounds nuw %struct.pmix_output_desc_t, ptr %86, i32 0, i32 2
  %88 = load i32, ptr %87, align 4, !tbaa !72
  %89 = icmp sge i32 %88, 2
  br i1 %89, label %90, label %102

90:                                               ; preds = %83
  %91 = load i32, ptr @pmix_bfrops_base_output, align 4, !tbaa !11
  %92 = load ptr, ptr %14, align 8, !tbaa !15
  %93 = getelementptr inbounds nuw %struct.pmix_peer_t, ptr %92, i32 0, i32 1
  %94 = load ptr, ptr %93, align 8, !tbaa !45
  %95 = getelementptr inbounds nuw %struct.pmix_namespace_t, ptr %94, i32 0, i32 12
  %96 = getelementptr inbounds nuw %struct.pmix_personality_t, ptr %95, i32 0, i32 1
  %97 = load ptr, ptr %96, align 8, !tbaa !74
  %98 = getelementptr inbounds nuw %struct.pmix_bfrops_module_t, ptr %97, i32 0, i32 0
  %99 = load ptr, ptr %98, align 8, !tbaa !75
  %100 = load i16, ptr %11, align 2, !tbaa !13
  %101 = call ptr @PMIx_Data_type_string(i16 noundef zeroext %100)
  call void (i32, ptr, ...) @pmix_output(i32 noundef %91, ptr noundef @.str.2, ptr noundef @.str.1, i32 noundef 222, ptr noundef %99, ptr noundef %101)
  br label %102

102:                                              ; preds = %90, %83, %80, %77
  %103 = getelementptr inbounds nuw %struct.pmix_buffer_t, ptr %13, i32 0, i32 1
  %104 = load i8, ptr %103, align 8, !tbaa !59
  %105 = zext i8 %104 to i32
  %106 = load ptr, ptr %14, align 8, !tbaa !15
  %107 = getelementptr inbounds nuw %struct.pmix_peer_t, ptr %106, i32 0, i32 1
  %108 = load ptr, ptr %107, align 8, !tbaa !45
  %109 = getelementptr inbounds nuw %struct.pmix_namespace_t, ptr %108, i32 0, i32 12
  %110 = getelementptr inbounds nuw %struct.pmix_personality_t, ptr %109, i32 0, i32 0
  %111 = load i8, ptr %110, align 8, !tbaa !55
  %112 = zext i8 %111 to i32
  %113 = icmp eq i32 %105, %112
  br i1 %113, label %114, label %127

114:                                              ; preds = %102
  %115 = load ptr, ptr %14, align 8, !tbaa !15
  %116 = getelementptr inbounds nuw %struct.pmix_peer_t, ptr %115, i32 0, i32 1
  %117 = load ptr, ptr %116, align 8, !tbaa !45
  %118 = getelementptr inbounds nuw %struct.pmix_namespace_t, ptr %117, i32 0, i32 12
  %119 = getelementptr inbounds nuw %struct.pmix_personality_t, ptr %118, i32 0, i32 1
  %120 = load ptr, ptr %119, align 8, !tbaa !74
  %121 = getelementptr inbounds nuw %struct.pmix_bfrops_module_t, ptr %120, i32 0, i32 4
  %122 = load ptr, ptr %121, align 8, !tbaa !114
  %123 = load ptr, ptr %9, align 8, !tbaa !10
  %124 = load ptr, ptr %10, align 8, !tbaa !113
  %125 = load i16, ptr %11, align 2, !tbaa !13
  %126 = call i32 %122(ptr noundef %13, ptr noundef %123, ptr noundef %124, i16 noundef zeroext %125)
  store i32 %126, ptr %12, align 4, !tbaa !11
  br label %128

127:                                              ; preds = %102
  store i32 -20, ptr %12, align 4, !tbaa !11
  br label %128

128:                                              ; preds = %127, %114
  br label %129

129:                                              ; preds = %128
  br label %130

130:                                              ; preds = %129
  br label %131

131:                                              ; preds = %130
  %132 = getelementptr inbounds nuw %struct.pmix_buffer_t, ptr %13, i32 0, i32 2
  %133 = load ptr, ptr %132, align 8, !tbaa !63
  %134 = load ptr, ptr %8, align 8, !tbaa !8
  %135 = getelementptr inbounds nuw %struct.pmix_data_buffer, ptr %134, i32 0, i32 0
  store ptr %133, ptr %135, align 8, !tbaa !61
  %136 = getelementptr inbounds nuw %struct.pmix_buffer_t, ptr %13, i32 0, i32 3
  %137 = load ptr, ptr %136, align 8, !tbaa !65
  %138 = load ptr, ptr %8, align 8, !tbaa !8
  %139 = getelementptr inbounds nuw %struct.pmix_data_buffer, ptr %138, i32 0, i32 1
  store ptr %137, ptr %139, align 8, !tbaa !64
  %140 = getelementptr inbounds nuw %struct.pmix_buffer_t, ptr %13, i32 0, i32 4
  %141 = load ptr, ptr %140, align 8, !tbaa !67
  %142 = load ptr, ptr %8, align 8, !tbaa !8
  %143 = getelementptr inbounds nuw %struct.pmix_data_buffer, ptr %142, i32 0, i32 2
  store ptr %141, ptr %143, align 8, !tbaa !66
  %144 = getelementptr inbounds nuw %struct.pmix_buffer_t, ptr %13, i32 0, i32 5
  %145 = load i64, ptr %144, align 8, !tbaa !69
  %146 = load ptr, ptr %8, align 8, !tbaa !8
  %147 = getelementptr inbounds nuw %struct.pmix_data_buffer, ptr %146, i32 0, i32 3
  store i64 %145, ptr %147, align 8, !tbaa !68
  %148 = getelementptr inbounds nuw %struct.pmix_buffer_t, ptr %13, i32 0, i32 6
  %149 = load i64, ptr %148, align 8, !tbaa !71
  %150 = load ptr, ptr %8, align 8, !tbaa !8
  %151 = getelementptr inbounds nuw %struct.pmix_data_buffer, ptr %150, i32 0, i32 4
  store i64 %149, ptr %151, align 8, !tbaa !70
  %152 = getelementptr inbounds nuw %struct.pmix_buffer_t, ptr %13, i32 0, i32 2
  store ptr null, ptr %152, align 8, !tbaa !63
  %153 = getelementptr inbounds nuw %struct.pmix_buffer_t, ptr %13, i32 0, i32 3
  store ptr null, ptr %153, align 8, !tbaa !65
  %154 = getelementptr inbounds nuw %struct.pmix_buffer_t, ptr %13, i32 0, i32 4
  store ptr null, ptr %154, align 8, !tbaa !67
  %155 = getelementptr inbounds nuw %struct.pmix_buffer_t, ptr %13, i32 0, i32 5
  store i64 0, ptr %155, align 8, !tbaa !69
  %156 = getelementptr inbounds nuw %struct.pmix_buffer_t, ptr %13, i32 0, i32 6
  store i64 0, ptr %156, align 8, !tbaa !71
  br label %157

157:                                              ; preds = %131
  br label %158

158:                                              ; preds = %157
  %159 = load i32, ptr %12, align 4, !tbaa !11
  store i32 %159, ptr %6, align 4
  store i32 1, ptr %15, align 4
  br label %160

160:                                              ; preds = %158, %19
  call void @llvm.lifetime.end.p0(i64 8, ptr %14) #12
  call void @llvm.lifetime.end.p0(i64 168, ptr %13) #12
  call void @llvm.lifetime.end.p0(i64 4, ptr %12) #12
  %161 = load i32, ptr %6, align 4
  ret i32 %161
}