; Function Attrs: nounwind uwtable
define i32 @PMIx_Data_unpack(ptr noundef captures(address_is_null) %0, ptr noundef captures(none) %1, ptr noundef %2, ptr noundef %3, i16 noundef zeroext %4) local_unnamed_addr #0 {
  %6 = alloca %struct.pmix_buffer_t, align 8
  call void @llvm.lifetime.start.p0(i64 168, ptr nonnull %6) #13
  %7 = tail call fastcc ptr @find_peer(ptr noundef %0)
  %8 = icmp eq ptr %7, null
  br i1 %8, label %74, label %9

9:                                                ; preds = %5
  %10 = load i32, ptr @pmix_class_init_epoch, align 4, !tbaa !3
  %11 = load i32, ptr getelementptr inbounds nuw (i8, ptr @pmix_buffer_t_class, i64 32), align 8, !tbaa !7
  %.not = icmp eq i32 %10, %11
  br i1 %.not, label %13, label %12

12:                                               ; preds = %9
  tail call void @pmix_class_initialize(ptr noundef nonnull @pmix_buffer_t_class) #13
  br label %13

13:                                               ; preds = %12, %9
  %14 = getelementptr inbounds nuw i8, ptr %6, i64 40
  store ptr @pmix_buffer_t_class, ptr %14, align 8, !tbaa !13
  %15 = getelementptr inbounds nuw i8, ptr %6, i64 48
  store i32 1, ptr %15, align 8, !tbaa !16
  %16 = getelementptr inbounds nuw i8, ptr %6, i64 56
  call void @llvm.memset.p0.i64(ptr noundef nonnull align 8 dereferenceable(64) %16, i8 0, i64 64, i1 false)
  %17 = load ptr, ptr getelementptr inbounds nuw (i8, ptr @pmix_buffer_t_class, i64 40), align 8, !tbaa !17
  %18 = load ptr, ptr %17, align 8, !tbaa !18
  %.not6.i = icmp eq ptr %18, null
  br i1 %.not6.i, label %pmix_obj_run_constructors.exit, label %.lr.ph.i

.lr.ph.i:                                         ; preds = %13, %.lr.ph.i
  %19 = phi ptr [ %21, %.lr.ph.i ], [ %18, %13 ]
  %.07.i = phi ptr [ %20, %.lr.ph.i ], [ %17, %13 ]
  call void %19(ptr noundef nonnull %6) #13
  %20 = getelementptr inbounds nuw i8, ptr %.07.i, i64 8
  %21 = load ptr, ptr %20, align 8, !tbaa !18
  %.not.i = icmp eq ptr %21, null
  br i1 %.not.i, label %pmix_obj_run_constructors.exit, label %.lr.ph.i, !llvm.loop !19

pmix_obj_run_constructors.exit:                   ; preds = %.lr.ph.i, %13
  %22 = load ptr, ptr getelementptr inbounds nuw (i8, ptr @pmix_globals, i64 328), align 8, !tbaa !21
  %23 = getelementptr inbounds nuw i8, ptr %22, i64 120
  %24 = load ptr, ptr %23, align 8, !tbaa !42
  %25 = getelementptr inbounds nuw i8, ptr %24, i64 480
  %26 = load i8, ptr %25, align 8, !tbaa !52
  %27 = getelementptr inbounds nuw i8, ptr %6, i64 120
  store i8 %26, ptr %27, align 8, !tbaa !56
  %28 = load ptr, ptr %1, align 8, !tbaa !58
  %29 = getelementptr inbounds nuw i8, ptr %6, i64 128
  store ptr %28, ptr %29, align 8, !tbaa !60
  %30 = getelementptr inbounds nuw i8, ptr %1, i64 8
  %31 = load ptr, ptr %30, align 8, !tbaa !61
  %32 = getelementptr inbounds nuw i8, ptr %6, i64 136
  store ptr %31, ptr %32, align 8, !tbaa !62
  %33 = getelementptr inbounds nuw i8, ptr %1, i64 16
  %34 = load ptr, ptr %33, align 8, !tbaa !63
  %35 = getelementptr inbounds nuw i8, ptr %6, i64 144
  store ptr %34, ptr %35, align 8, !tbaa !64
  %36 = getelementptr inbounds nuw i8, ptr %1, i64 24
  %37 = load i64, ptr %36, align 8, !tbaa !65
  %38 = getelementptr inbounds nuw i8, ptr %6, i64 152
  store i64 %37, ptr %38, align 8, !tbaa !66
  %39 = getelementptr inbounds nuw i8, ptr %1, i64 32
  %40 = load i64, ptr %39, align 8, !tbaa !67
  %41 = getelementptr inbounds nuw i8, ptr %6, i64 160
  store i64 %40, ptr %41, align 8, !tbaa !68
  call void @llvm.memset.p0.i64(ptr noundef nonnull align 8 dereferenceable(40) %1, i8 0, i64 40, i1 false)
  %42 = load i32, ptr @pmix_bfrops_base_output, align 4, !tbaa !3
  %or.cond = icmp ult i32 %42, 64
  br i1 %or.cond, label %43, label %55

43:                                               ; preds = %pmix_obj_run_constructors.exit
  %44 = zext nneg i32 %42 to i64
  %45 = getelementptr inbounds nuw [0 x %struct.pmix_output_desc_t], ptr @pmix_output_info, i64 0, i64 %44, i32 2
  %46 = load i32, ptr %45, align 4, !tbaa !69
  %47 = icmp sgt i32 %46, 1
  br i1 %47, label %48, label %55

48:                                               ; preds = %43
  %49 = getelementptr inbounds nuw i8, ptr %7, i64 120
  %50 = load ptr, ptr %49, align 8, !tbaa !42
  %51 = getelementptr inbounds nuw i8, ptr %50, i64 488
  %52 = load ptr, ptr %51, align 8, !tbaa !71
  %53 = load ptr, ptr %52, align 8, !tbaa !72
  %54 = call ptr @PMIx_Data_type_string(i16 noundef zeroext %4) #13
  call void (i32, ptr, ...) @pmix_output(i32 noundef %42, ptr noundef nonnull @.str.2, ptr noundef nonnull @.str.1, i32 noundef 222, ptr noundef %53, ptr noundef %54) #13
  %.pre = load i8, ptr %27, align 8, !tbaa !56
  br label %55

55:                                               ; preds = %48, %43, %pmix_obj_run_constructors.exit
  %56 = phi i8 [ %.pre, %48 ], [ %26, %43 ], [ %26, %pmix_obj_run_constructors.exit ]
  %57 = getelementptr inbounds nuw i8, ptr %7, i64 120
  %58 = load ptr, ptr %57, align 8, !tbaa !42
  %59 = getelementptr inbounds nuw i8, ptr %58, i64 480
  %60 = load i8, ptr %59, align 8, !tbaa !52
  %61 = icmp eq i8 %56, %60
  br i1 %61, label %62, label %68

62:                                               ; preds = %55
  %63 = getelementptr inbounds nuw i8, ptr %58, i64 488
  %64 = load ptr, ptr %63, align 8, !tbaa !71
  %65 = getelementptr inbounds nuw i8, ptr %64, i64 32
  %66 = load ptr, ptr %65, align 8, !tbaa !100
  %67 = call i32 %66(ptr noundef nonnull %6, ptr noundef %2, ptr noundef %3, i16 noundef zeroext %4) #13
  br label %68

68:                                               ; preds = %55, %62
  %.025 = phi i32 [ %67, %62 ], [ -20, %55 ]
  %69 = load ptr, ptr %29, align 8, !tbaa !60
  store ptr %69, ptr %1, align 8, !tbaa !58
  %70 = load ptr, ptr %32, align 8, !tbaa !62
  store ptr %70, ptr %30, align 8, !tbaa !61
  %71 = load ptr, ptr %35, align 8, !tbaa !64
  store ptr %71, ptr %33, align 8, !tbaa !63
  %72 = load i64, ptr %38, align 8, !tbaa !66
  store i64 %72, ptr %36, align 8, !tbaa !65
  %73 = load i64, ptr %41, align 8, !tbaa !68
  store i64 %73, ptr %39, align 8, !tbaa !67
  br label %74

74:                                               ; preds = %5, %68
  %.0 = phi i32 [ %.025, %68 ], [ -46, %5 ]
  call void @llvm.lifetime.end.p0(i64 168, ptr nonnull %6) #13
  ret i32 %.0
}